ccollections
defaultdict
p0
(c__builtin__
list
p1
tp2
Rp3
S'bangalore'
p4
(lp5
Vhttps://www.oyolife.in/bangalore/74726-oyo-life-blr1691-malleswaram
p6
aVhttps://www.oyolife.in/bangalore/73477-oyo-life-blr1652-bannerghatta-main-rd
p7
aVhttps://www.oyolife.in/bangalore/60805-oyo-life-blr1579-singasandra
p8
aVhttps://www.oyolife.in/bangalore/45340-oyo-life-blr1168-manyata-tech-park
p9
aVhttps://www.oyolife.in/bangalore/53200-oyo-life-blr1369-chikkakannalli
p10
aVhttps://www.oyolife.in/bangalore/74075-oyo-life-blr1671-soladevanahalli
p11
aVhttps://www.oyolife.in/bangalore/75615-oyo-life-blr1724-electronic-city-phase-1
p12
aVhttps://www.oyolife.in/bangalore/62355-oyo-life-blr1629-kattigenahalli
p13
aVhttps://www.oyolife.in/bangalore/53571-oyo-life-blr1381-manyata-tech-park-gate-5
p14
aVhttps://www.oyolife.in/bangalore/74139-oyo-life-blr1676-wtc-yeshwantpur
p15
aVhttps://www.oyolife.in/bangalore/75021-oyo-life-blr1699-bannerghatta-road
p16
aVhttps://www.oyolife.in/bangalore/58380-oyo-life-blr1516-hebbal
p17
aVhttps://www.oyolife.in/bangalore/62888-oyo-life-blr1646-dasarahall
p18
aVhttps://www.oyolife.in/bangalore/73840-oyo-life-blr1661-rr-nagar
p19
aVhttps://www.oyolife.in/bangalore/62280-oyo-life-blr1627-k.r-puram
p20
aVhttps://www.oyolife.in/bangalore/49304-oyo-life-blr1286-hebbal
p21
aVhttps://www.oyolife.in/bangalore/74076-oyo-life-blr1672-near-acharya-college
p22
aVhttps://www.oyolife.in/bangalore/40247-oyo-life-blr1016-kundalahalli-gate
p23
aVhttps://www.oyolife.in/bangalore/53376-oyo-life-blr1376-manyata-tech-park-gate-5
p24
aVhttps://www.oyolife.in/bangalore/45746-oyo-life-blr1178-electronic-city
p25
aVhttps://www.oyolife.in/bangalore/74059-oyo-life-blr1669-near-acharya-college
p26
aVhttps://www.oyolife.in/bangalore/60690-oyo-life-blr1570-marathahalli
p27
aVhttps://www.oyolife.in/bangalore/40302-oyo-life-blr1018-munnekollal
p28
aVhttps://www.oyolife.in/bangalore/53999-oyo-life-blr1398-electronic-city-phase-1
p29
aVhttps://www.oyolife.in/bangalore/60469-oyo-life-blr1561-electronic-city
p30
aVhttps://www.oyolife.in/bangalore/39629-oyo-life-blr992-bommanahalli
p31
aVhttps://www.oyolife.in/bangalore/46074-oyo-life-blr1187-manyata-tech-park
p32
aVhttps://www.oyolife.in/bangalore/40934-oyo-life-blr1047-electronic-city-phase-2
p33
aVhttps://www.oyolife.in/bangalore/51060-oyo-life-blr1318-jakkuru
p34
aVhttps://www.oyolife.in/bangalore/49791-oyo-life-blr1293-manyata-tech-park
p35
aVhttps://www.oyolife.in/bangalore/61535-oyo-life-blr1607-hbr-layout
p36
aVhttps://www.oyolife.in/bangalore/62125-oyo-life-blr1623-k-r-puram
p37
aVhttps://www.oyolife.in/bangalore/76374-oyo-life-blr1746-veerannapalya
p38
aVhttps://www.oyolife.in/bangalore/42102-oyo-life-blr1074-electronic-city-phase-2
p39
aVhttps://www.oyolife.in/bangalore/47951-oyo-life-blr1257-electronic-city-phase-2
p40
aVhttps://www.oyolife.in/bangalore/53853-oyo-life-blr1393-electronic-city
p41
aVhttps://www.oyolife.in/bangalore/62604-oyo-life-blr1641-begur
p42
aVhttps://www.oyolife.in/bangalore/52262-oyo-life-blr1346-koramangala
p43
aVhttps://www.oyolife.in/bangalore/52898-oyo-life-blr1365-hebbal
p44
aVhttps://www.oyolife.in/bangalore/40243-oyo-life-blr1014-kundalahalli-gate
p45
aVhttps://www.oyolife.in/bangalore/39623-oyo-life-blr990-bommanahalli
p46
aVhttps://www.oyolife.in/bangalore/39624-oyo-life-blr991-bommanahalli
p47
aVhttps://www.oyolife.in/bangalore/42100-oyo-life-blr1073-electronic-city-phase-2
p48
aVhttps://www.oyolife.in/bangalore/49790-oyo-life-blr1292-jalahalli-west
p49
aVhttps://www.oyolife.in/bangalore/54405-oyo-life-blr1409-ejipura
p50
aVhttps://www.oyolife.in/bangalore/40241-oyo-life-blr1013-kundalahalli-gate
p51
aVhttps://www.oyolife.in/bangalore/60124-oyo-life-blr1556-hebbal
p52
aVhttps://www.oyolife.in/bangalore/55957-oyo-life-blr1451-jalahalli
p53
aVhttps://www.oyolife.in/bangalore/49120-oyo-life-blr1281-bsf-campus-yelahanka
p54
aVhttps://www.oyolife.in/bangalore/46077-oyo-life-blr1190-electronic-city
p55
aVhttps://www.oyolife.in/bangalore/51740-oyo-life-blr1334-yelahanka
p56
aVhttps://www.oyolife.in/bangalore/57388-oyo-life-blr1485-singasandra
p57
aVhttps://www.oyolife.in/bangalore/46223-oyo-life-blr1202-reva-university
p58
aVhttps://www.oyolife.in/bangalore/57309-oyo-life-blr1481-kundalahalli-gate
p59
aVhttps://www.oyolife.in/bangalore/52702-oyo-life-blr1362-banerghatta-road
p60
aVhttps://www.oyolife.in/bangalore/44244-oyo-life-blr1136-electronic-city-phase-2
p61
aVhttps://www.oyolife.in/bangalore/74446-oyo-life-blr1682-mailasandra
p62
aVhttps://www.oyolife.in/bangalore/45193-oyo-life-blr1164-electronic-city-phase-2
p63
aVhttps://www.oyolife.in/bangalore/52385-oyo-life-blr1351-itpl-whitefield
p64
aVhttps://www.oyolife.in/bangalore/53985-oyo-life-blr1395-whitefield
p65
aVhttps://www.oyolife.in/bangalore/40428-oyo-life-blr1027-kundalahalli-gate
p66
aVhttps://www.oyolife.in/bangalore/57043-oyo-life-blr1472-electronic-city
p67
aVhttps://www.oyolife.in/bangalore/60385-oyo-life-blr1560-murgeshpalya
p68
aVhttps://www.oyolife.in/bangalore/46075-oyo-life-blr1188-manyata-tech-park
p69
aVhttps://www.oyolife.in/bangalore/45135-oyo-life-blr1163-bommanahalli
p70
aVhttps://www.oyolife.in/bangalore/45194-oyo-life-blr1165-kr-puram
p71
aVhttps://www.oyolife.in/bangalore/42701-oyo-life-blr1094-hebbal
p72
aVhttps://www.oyolife.in/bangalore/60687-oyo-life-blr1569-whitefield
p73
aVhttps://www.oyolife.in/bangalore/40621-oyo-life-blr1038-aecs-layout
p74
aVhttps://www.oyolife.in/bangalore/48953-oyo-life-blr1278-sarjapur-road
p75
aVhttps://www.oyolife.in/bangalore/49011-oyo-life-blr1280-electronic-city-phase-1
p76
aVhttps://www.oyolife.in/bangalore/74071-oyo-life-blr1670-koramangala
p77
aVhttps://www.oyolife.in/bangalore/44205-oyo-life-blr1132-electronic-city-phase-2
p78
aVhttps://www.oyolife.in/bangalore/40245-oyo-life-blr1015-kundalahalli-gate
p79
aVhttps://www.oyolife.in/bangalore/41590-oyo-life-blr1060-electronic-city
p80
aVhttps://www.oyolife.in/bangalore/60631-oyo-life-blr1566-btm-layout-1
p81
aVhttps://www.oyolife.in/bangalore/47548-oyo-life-blr1244-world-trade-center
p82
aVhttps://www.oyolife.in/bangalore/52899-oyo-life-blr1366-bannerghatta-road
p83
aVhttps://www.oyolife.in/bangalore/41764-oyo-life-blr1065-electronic-city-phase-1
p84
aVhttps://www.oyolife.in/bangalore/46107-oyo-life-blr1195-reva-university
p85
aVhttps://www.oyolife.in/bangalore/44989-oyo-life-blr1152-marathahalli
p86
aVhttps://www.oyolife.in/bangalore/53370-oyo-life-blr1375-koramangala
p87
aVhttps://www.oyolife.in/bangalore/54262-oyo-life-blr1406-electronic-city-phase-2
p88
aVhttps://www.oyolife.in/bangalore/60627-oyo-life-blr1565-doddakanneli
p89
aVhttps://www.oyolife.in/bangalore/45069-oyo-life-blr1160-btm-layout
p90
aVhttps://www.oyolife.in/bangalore/45739-oyo-life-blr1177-electronic-city
p91
aVhttps://www.oyolife.in/bangalore/40553-oyo-life-blr1035-koramangala
p92
aVhttps://www.oyolife.in/bangalore/54282-oyo-life-blr1407-sarjapur-road
p93
aVhttps://www.oyolife.in/bangalore/51230-oyo-life-blr1321-world-trade-center
p94
aVhttps://www.oyolife.in/bangalore/60006-oyo-life-blr1552-singasandra
p95
aVhttps://www.oyolife.in/bangalore/45265-oyo-life-blr1166-rt-nagar
p96
aVhttps://www.oyolife.in/bangalore/39258-oyo-life-blr970-hsr-layout-sector-7
p97
aVhttps://www.oyolife.in/bangalore/47543-oyo-life-blr1243-world-trade-center-mathikere
p98
aVhttps://www.oyolife.in/bangalore/39650-oyo-life-blr994-hongasandra
p99
aVhttps://www.oyolife.in/bangalore/50869-oyo-life-blr1315-manyata-tech-park
p100
aVhttps://www.oyolife.in/bangalore/47589-oyo-life-blr1246-electronic-city
p101
aVhttps://www.oyolife.in/bangalore/52386-oyo-life-blr1352-sarjapur-road
p102
aVhttps://www.oyolife.in/bangalore/44065-oyo-life-blr1129-manyata-tech-park
p103
aVhttps://www.oyolife.in/bangalore/45722-oyo-life-blr1174-hsr-layout-sector-4
p104
aVhttps://www.oyolife.in/bangalore/48694-oyo-life-blr1273-whitefield
p105
aVhttps://www.oyolife.in/bangalore/54095-oyo-life-blr1404-hsr-layout
p106
aVhttps://www.oyolife.in/bangalore/40635-oyo-life-blr1039-aecs-layout
p107
aVhttps://www.oyolife.in/bangalore/47588-oyo-life-blr1245-kundanahalli-gate
p108
aVhttps://www.oyolife.in/bangalore/45118-oyo-life-blr1162-hsr-layout-sector-4
p109
aVhttps://www.oyolife.in/bangalore/39314-oyo-life-blr971-hsr-layout-sector-7
p110
aVhttps://www.oyolife.in/bangalore/50368-oyo-life-blr1304-kundalahalli-gate
p111
aVhttps://www.oyolife.in/bangalore/47216-oyo-life-blr1229-hsr-layout-sector-2
p112
aVhttps://www.oyolife.in/bangalore/38951-oyo-life-blr957-indiranagar
p113
aVhttps://www.oyolife.in/bangalore/52217-oyo-life-blr1342-koramangala
p114
aVhttps://www.oyolife.in/bangalore/46524-oyo-life-blr1209-btm-layout
p115
aVhttps://www.oyolife.in/bangalore/53986-oyo-life-blr1396-whitefield
p116
aVhttps://www.oyolife.in/bangalore/40418-oyo-life-blr1025-hsr-layout-sector-2
p117
as.