ccollections
defaultdict
p0
(c__builtin__
list
p1
tp2
Rp3
S'chennai'
p4
(lp5
Vhttps://zolostays.com/pg-hostel-near-Porur-in-Chennai-for-men-Zolo-Gusto-ZCH046
p6
aVhttps://zolostays.com/pg-hostel-near-Pallikaranai-in-Chennai-for-couples-Zolo-Classic-ZCH066
p7
aVhttps://zolostays.com/pg-hostel-near-Thoraipakkam-in-Chennai-for-couples-Zolo-Wind-Sphere-ZCH071
p8
aVhttps://zolostays.com/pg-hostel-near-Sholinganallur-in-Chennai-for-couples-Zolo-Millennium-ZCH020
p9
aVhttps://zolostays.com/pg-hostel-near-Porur-in-Chennai-for-couples-Zolo-Inspire-ZCH065
p10
aVhttps://zolostays.com/pg-hostel-near-Urapakkam-in-Chennai-for-men-Zolo-Milano-ZCH049
p11
aVhttps://zolostays.com/pg-hostel-near-Pallikaranai-in-Chennai-for-couples-Zolo-Viceroy-ZCH042
p12
aVhttps://zolostays.com/pg-hostel-near-Siruseri-in-Chennai-for-couples-Zolo-Waterfront-ZCH016
p13
aVhttps://zolostays.com/pg-hostel-near-Adyar-in-Chennai-for-couples-Zolo-Lyca-ZCH040
p14
aVhttps://zolostays.com/pg-hostel-near-Sholinganallur-in-Chennai-for-men-Zolo-Royce-ZCH044
p15
aVhttps://zolostays.com/pg-hostel-near-Thoraipakkam-in-Chennai-for-couples-Zolo-Sereno-ZCH069
p16
aVhttps://zolostays.com/pg-hostel-near-Porur-in-Chennai-for-men-Zolo-Upscale-ZCH021
p17
aVhttps://zolostays.com/pg-hostel-near-Perungalathur-in-Chennai-for-couples-Zolo-Greenhills-ZCH056
p18
aVhttps://zolostays.com/pg-hostel-near-Kuthambakkam-in-Chennai-for-couples-Zolo-Galleria-ZCH084
p19
aVhttps://zolostays.com/pg-hostel-near-Karapakkam-in-Chennai-for-men-Zolo-Cruze-ZCH038
p20
aVhttps://zolostays.com/pg-hostel-near-Thoraipakkam-in-Chennai-for-men-Zolo-Bohemia-ZCH014
p21
aVhttps://zolostays.com/pg-hostel-near-Madipakkam-in-Chennai-for-couples-Zolo-Titanium-ZCH089
p22
aVhttps://zolostays.com/pg-hostel-near-Thoraipakkam-in-Chennai-for-couples-Zolo-Tangirala-ZCH035
p23
aVhttps://zolostays.com/pg-hostel-near-Perumbakkam-in-Chennai-for-couples-Zolo-Regalia-ZCH052
p24
aVhttps://zolostays.com/pg-hostel-near-Thoraipakkam-in-Chennai-for-couples-Zolo-Drone-ZCH082
p25
aVhttps://zolostays.com/pg-hostel-near-Alwarpet-in-Chennai-for-couples-Zolo-Houston-ZCH062
p26
aVhttps://zolostays.com/pg-hostel-near-Velachery-in-Chennai-for-men-Zolo-Sarovar-ZCH045
p27
aVhttps://zolostays.com/pg-hostel-near-Sholinganallur-in-Chennai-for-men-Zolo-Retro-ZCH011
p28
aVhttps://zolostays.com/pg-hostel-near-Porur-in-Chennai-for-men-Zolo-Platina-ZCH012
p29
aVhttps://zolostays.com/pg-hostel-near-Koyembedu-in-Chennai-for-men-Zolo-Metro-ZCH043
p30
aVhttps://zolostays.com/pg-hostel-near-Siruseri-in-Chennai-for-couples-Zolo-Homestel-ZCH019
p31
aVhttps://zolostays.com/pg-hostel-near-Velachery-in-Chennai-for-couples-Zolo-Sarvam-ZSS
p32
aVhttps://zolostays.com/pg-hostel-near-Sholinganallur-in-Chennai-for-men-Zolo-Nook-ZCH063
p33
aVhttps://zolostays.com/pg-hostel-near-Kandanchavadi-in-Chennai-for-couples-Zolo-Elan-ZCH031
p34
aVhttps://zolostays.com/pg-hostel-near-Semmancheri-in-Chennai-for-men-Zolo-Ark-ZCH075
p35
aVhttps://zolostays.com/pg-hostel-near-Nungambakkam-in-Chennai-for-men-Zolo-Zentrum-ZCH078
p36
aVhttps://zolostays.com/pg-hostel-near-Adayar-in-Chennai-for-men-Zolo-Chelsea-ZCH087
p37
aVhttps://zolostays.com/pg-hostel-near-Navalur-in-Chennai-for-couples-Zolo-Sonic-ZCH077
p38
aVhttps://zolostays.com/pg-hostel-near-Thoraipakkam-in-Chennai-for-men-Zolo-Quintain-ZCH057
p39
aVhttps://zolostays.com/pg-hostel-near-Vandalur-in-Chennai-for-couples-Zolo-GST-ZCH013
p40
aVhttps://zolostays.com/pg-hostel-near-Kattupakkam-in-Chennai-for-couples-Zolo-Kazo-ZCH088
p41
aVhttps://zolostays.com/pg-hostel-near-Iyyapanthangal-in-Chennai-for-couples-Zolo-Bluemen-ZCH060
p42
aVhttps://zolostays.com/pg-hostel-near-Oragadam-in-Chennai-for-couples-Zolo-H-Park-ZCH032
p43
aVhttps://zolostays.com/pg-hostel-near-Mogappair-in-Chennai-for-couples-Zolo-Signature-ZCH029
p44
aVhttps://zolostays.com/pg-hostel-near-Gerugambakkam-in-Chennai-for-couples-Zolo-Apex-ZCH028
p45
aVhttps://zolostays.com/pg-hostel-near-Maraimalai-Nagar-in-Chennai-for-couples-Zolo-Metropolis-ZCH059
p46
aVhttps://zolostays.com/pg-hostel-near-Thoraipakkam-in-Chennai-for-men-Zolo-Mandarin-ZCH023
p47
aVhttps://zolostays.com/pg-hostel-near-Thoraipakkam-in-Chennai-for-couples-Zolo-Prime-ZCH054
p48
aVhttps://zolostays.com/pg-hostel-near-Thoraipakkam-in-Chennai-for-couples-Zolo-Helena-ZCH053
p49
aVhttps://zolostays.com/pg-hostel-near-Perumbakkam-in-Chennai-for-couples-Zolo-Mondeo-ZCH081
p50
aVhttps://zolostays.com/pg-hostel-near-Porur-in-Chennai-for-couples-Zolo-Castle-ZCH008
p51
aVhttps://zolostays.com/pg-hostel-near-Perungudi-in-Chennai-for-couples-Zolo-Spencer-ZCH067
p52
aVhttps://zolostays.com/pg-hostel-near-Neelankarai-in-Chennai-for-couples-Zolo-Del-Mar-ZCH025
p53
aVhttps://zolostays.com/pg-hostel-near-Guindy-in-Chennai-for-men-Zolo-Habitat-ZCH074
p54
aVhttps://zolostays.com/pg-hostel-near-Thiruvanmiyur-in-Chennai-for-couples-Zolo-Royal-Enclave-ZCH076
p55
aVhttps://zolostays.com/pg-hostel-near-Thoraipakkam-in-Chennai-for-men-Zolo-Trinity-ZCH079
p56
aVhttps://zolostays.com/pg-hostel-near-Thoraipakkam-in-Chennai-for-men-Zolo-Xiang-ZCH007
p57
aVhttps://zolostays.com/pg-hostel-near-Sholinganallur-in-Chennai-for-men-Zolo-Pinnacle-Crest-ZB
p58
aVhttps://zolostays.com/pg-hostel-near-Anna-Nagar-in-Chennai-for-couples-Zolo-Flyer-ZCH073
p59
aVhttps://zolostays.com/pg-hostel-near-Thoraipakkam-in-Chennai-for-men-Zolo-Cooper-ZCH034
p60
aVhttps://zolostays.com/pg-hostel-near-Karapakkam-in-Chennai-for-men-Zolo-Lake-Square-ZCH017
p61
aVhttps://zolostays.com/pg-hostel-near-Velachery-in-Chennai-for-couples-Zolo-Prodiigy-ZCH041
p62
aVhttps://zolostays.com/pg-hostel-near-Kotturpuram-in-Chennai-for-couples-Zolo-Superior-Ink-ZCH080
p63
aVhttps://zolostays.com/pg-hostel-near-Urapakkam-in-Chennai-for-men-Zolo-Mario-ZCH086
p64
aVhttps://zolostays.com/pg-hostel-near-Thoraipakkam-in-Chennai-for-men-Zolo-T20-ZCH048
p65
aVhttps://zolostays.com/pg-hostel-near-Navalur-in-Chennai-for-couples-Zolo-Opaline-ZOP
p66
aVhttps://zolostays.com/pg-hostel-near-Porur-in-Chennai-for-couples-Zolo-La-Celeste-ZCH015
p67
aVhttps://zolostays.com/pg-hostel-near-SP-Kovil-in-Chennai-for-couples-Zolo-Happinest-ZCH047
p68
aVhttps://zolostays.com/pg-hostel-near-Saidapet-in-Chennai-for-men-Zolo-Central-Park-ZCH037
p69
aVhttps://zolostays.com/pg-hostel-near-Mahindra-World-City-in-Chennai-for-couples-Zolo-Pristine-Pavilion-ZCPP
p70
aVhttps://zolostays.com/pg-hostel-near-Vadapalani-in-Chennai-for-couples-Zolo-Ascot-ZCH070
p71
aVhttps://zolostays.com/pg-hostel-near-Urapakkam-in-Chennai-for-men-Zolo-Urban-Villa-ZCH085
p72
aVhttps://zolostays.com/pg-hostel-near-Ambattur-in-Chennai-for-couples-Zolo-Eva-ZCH064
p73
aVhttps://zolostays.com/pg-hostel-near-Porur-in-Chennai-for-couples-Zolo-Demure-ZCH022
p74
aVhttps://zolostays.com/pg-hostel-near-Semmancheri-in-Chennai-for-men-Zolo-Cornerstone-ZCH072
p75
aVhttps://zolostays.com/pg-hostel-near-Sholinganallur-in-Chennai-for-men-Zolo-Panama-ZCH036
p76
aVhttps://zolostays.com/pg-hostel-near-Padur-in-Chennai-for-men-Zolo-Happiness-Tower-ZCH010
p77
aVhttps://zolostays.com/pg-hostel-near-Iyyapanthangal-in-Chennai-for-men-Zolo-Bellagio-ZCH055
p78
aVhttps://zolostays.com/pg-hostel-near-Kottivakkam-in-Chennai-for-men-Zolo-Tiara-ZCH068
p79
aVhttps://zolostays.com/pg-hostel-near-Thiruvanmiyur-in-Chennai-for-couples-Zolo-Vista-Heights-ZCH039
p80
aVhttps://zolostays.com/pg-hostel-near-Sholinganallur-in-Chennai-for-couples-Zolo-Agate-ZCH090
p81
aVhttps://zolostays.com/pg-hostel-near-Kottivakkam-in-Chennai-for-couples-Zolo-Playa-ZCH026
p82
aVhttps://zolostays.com/pg-hostel-near-Perungudi-in-Chennai-for-couples-Zolo-Athens-ZCH027
p83
aVhttps://zolostays.com/pg-hostel-near-Sholinganallur-in-Chennai-for-men-Zolo-Landchester-ZCH058
p84
aVhttps://zolostays.com/pg-hostel-near-Valasaravakkam-in-Chennai-for-couples-Zolo-Nime-ZCH083
p85
asS'delhi'
p86
(lp87
Vhttps://zolostays.com/pg-hostel-near-Satya-Niketan-in-Delhi-for-men-Zolo-Youth-ZDL003
p88
aVhttps://zolostays.com/pg-hostel-near-Satya-Niketan-in-Delhi-for-men-Zolo-Amigos-ZDL002
p89
as.