ccollections
defaultdict
p0
(c__builtin__
list
p1
tp2
Rp3
S'delhi'
p4
(lp5
Vhttps://www.coho.in/flats-in-delhi/boys-coho-in-kamla-nagar-1150
p6
aVhttps://www.coho.in/flats-in-delhi/boys-villa-in-shakti-nagar-74
p7
aVhttps://www.coho.in/flats-in-delhi/girls-coho-in-north-campus-1194
p8
aVhttps://www.coho.in/flats-in-delhi/boys-villa-near-hauz-khas-in-hauz-khas-1154
p9
aVhttps://www.coho.in/flats-in-delhi/girls-coho-in-south-delhi-in-lajpat-nagar-1191
p10
as.