ccollections
defaultdict
p0
(c__builtin__
list
p1
tp2
Rp3
S'chennai'
p4
(lp5
sS'delhi'
p6
(lp7
Vhttps://www.stanzaliving.com/residences/delhi/pg-hostel-in-south-campus/girls/kyoto-house
p8
aVhttps://www.stanzaliving.com/residences/delhi/pg-hostel-in-south-campus/girls/tokyo-house
p9
aVhttps://www.stanzaliving.com/residences/delhi/pg-hostel-in-south-campus/girls/osaka-house
p10
aVhttps://www.stanzaliving.com/residences/delhi/pg-hostel-in-south-campus/boys/sapporo-house
p11
aVhttps://www.stanzaliving.com/residences/delhi/pg-hostel-in-north-campus/girls/colombo-house
p12
aVhttps://www.stanzaliving.com/residences/delhi/pg-hostel-in-north-campus/girls/montreal-house
p13
aVhttps://www.stanzaliving.com/residences/delhi/pg-hostel-in-north-campus/girls/san-diego-house
p14
aVhttps://www.stanzaliving.com/residences/delhi/pg-hostel-in-north-campus/girls/toronto-house
p15
aVhttps://www.stanzaliving.com/residences/delhi/pg-hostel-in-north-campus/boys/boston-house
p16
aVhttps://www.stanzaliving.com/residences/delhi/pg-hostel-in-north-campus/boys/dubai-house
p17
aVhttps://www.stanzaliving.com/residences/delhi/pg-hostel-in-north-campus/girls/la-house
p18
aVhttps://www.stanzaliving.com/residences/delhi/pg-hostel-near-muradnagar/boys/maputo-house
p19
aVhttps://www.stanzaliving.com/residences/delhi/pg-hostel-near-muradnagar/boys/accra-house
p20
aVhttps://www.stanzaliving.com/residences/delhi/pg-hostel-near-muradnagar/boys/libreville-house
p21
asS'noida'
p22
(lp23
Vhttps://www.stanzaliving.com/residences/noida/pg-hostel-near-amity/girls/mykonos-house
p24
aVhttps://www.stanzaliving.com/residences/noida/pg-hostel-near-amity/girls/santorini-house
p25
as.